; Function Attrs: nounwind uwtable
define void @php_stream_notification_notify(ptr noundef %0, i32 noundef %1, i32 noundef %2, ptr noundef %3, i32 noundef %4, i64 noundef %5, i64 noundef %6, ptr noundef %7) local_unnamed_addr #2 {
  %.not = icmp eq ptr %0, null
  br i1 %.not, label %13, label %9

9:                                                ; preds = %8
  %10 = load ptr, ptr %0, align 8
  %.not11 = icmp eq ptr %10, null
  br i1 %.not11, label %13, label %11

11:                                               ; preds = %9
  %12 = load ptr, ptr %10, align 8
  tail call void %12(ptr noundef nonnull %0, i32 noundef %1, i32 noundef %2, ptr noundef %3, i32 noundef %4, i64 noundef %5, i64 noundef %6, ptr noundef %7) #27
  br label %13

13:                                               ; preds = %11, %9, %8
  ret void
}